target datalayout = "e-m:e-p270:32:32-p271:32:32-p272:64:64-i64:64-i128:128-f80:128-n8:16:32:64-S128"
target triple = "x86_64-pc-linux-gnu"

%struct.redisServer = type { i32, i64, ptr, ptr, ptr, i32, i32, i32, i32, i32, ptr, ptr, ptr, ptr, ptr, i32, i32, i32, i32, i64, i32, i32, i32, i32, ptr, i32, i32, [41 x i8], i32, i64, i32, i32, i32, ptr, ptr, i32, i32, i64, ptr, ptr, ptr, ptr, [2 x i32], i32, i32, i32, i32, i32, i32, [16 x ptr], i32, ptr, ptr, i32, [8 x %struct.connListener], i32, %struct.connListener, ptr, ptr, ptr, ptr, ptr, ptr, ptr, ptr, ptr, ptr, i32, ptr, i32, ptr, [3 x %struct.pause_event], [256 x i8], ptr, i64, i32, i32, [128 x i32], i32, i32, i64, i32, i32, i32, i32, i32, i64, i64, i64, i64, i64, i64, i64, i64, i64, i64, double, i64, i64, i64, i64, i64, i64, i64, i64, i64, i64, i64, i64, i64, i64, i64, i64, i64, i64, i64, i64, i64, double, i64, i64, i64, i64, i64, ptr, i64, i64, i64, %struct.malloc_stats, i64, i64, i64, i64, i64, i64, i64, i64, i64, i64, i64, i64, double, [4 x i64], i64, i64, i64, i64, [128 x i64], [128 x i64], i64, i64, [7 x %struct.anon.2], i64, i64, i64, i64, i64, i64, [4 x %struct.durationStats], i32, i32, i32, i32, i32, i32, i32, i32, i32, i32, i32, i32, i64, i32, i32, i32, i32, i64, i64, i32, i32, i32, i32, i32, ptr, [3 x %struct.clientBufferLimitsConfig], i32, i32, i32, ptr, i32, i32, i32, i32, i32, i32, ptr, ptr, i32, i32, i64, i64, i64, i64, i64, i32, i32, ptr, i32, i32, i64, i64, i64, i64, i64, i32, i32, i64, i32, i32, i32, i32, i32, i32, i32, i32, ptr, i32, i64, i64, i64, i64, i32, ptr, i32, ptr, i32, i32, i32, i64, i64, i64, i64, i32, i32, i32, i32, i32, i32, ptr, i32, i32, ptr, i32, i32, i32, [2 x i32], i32, %struct.redisOpArray, i32, ptr, i32, ptr, i32, i32, i32, i32, i32, i32, i32, [41 x i8], [41 x i8], i64, i64, i64, i64, i32, i32, ptr, i64, i64, %struct.replDataBuf, i64, i64, i32, i32, i32, i32, i32, i32, i32, i32, i32, i64, ptr, i64, ptr, ptr, ptr, i32, i32, ptr, ptr, i32, i32, i32, i64, i64, i64, i64, ptr, ptr, i32, ptr, i64, i32, i32, i32, i64, i32, i32, i32, i32, ptr, i32, i32, [41 x i8], i64, i32, ptr, i32, i32, i64, i64, i32, i32, i32, i32, i32, i64, [3 x i32], i32, i32, i32, [10 x i32], ptr, ptr, i32, i64, ptr, ptr, i32, i32, i32, i32, i64, i64, i64, i64, i64, i64, i64, i64, i64, i64, i32, i32, i64, i64, i32, i64, i64, i64, i64, i64, ptr, ptr, i32, ptr, i32, i32, i32, i32, i64, i64, ptr, ptr, i32, i32, i32, i32, i32, ptr, ptr, ptr, i32, i32, i32, i32, i32, i32, i32, i64, i32, i32, i64, i32, i32, i32, i32, i32, i32, i32, i64, ptr, ptr, i64, ptr, i32, %struct.aclInfo, i32, i64, i32, i32, i32, %struct.redisTLSContextConfig, ptr, ptr, ptr, ptr, ptr, i64, i32, ptr, i32, i32, i32, i64, i32, ptr }
%struct.connListener = type { [16 x i32], i32, ptr, i32, i32, ptr, ptr }
%struct.pause_event = type { i32, i64 }
%struct.malloc_stats = type { i64, i64, i64, i64, i64, i64, i64, i64, i64, i64, i64 }
%struct.anon.2 = type { i64, i64, [16 x i64], i32 }
%struct.durationStats = type { i64, i64, i64 }
%struct.clientBufferLimitsConfig = type { i64, i64, i64 }
%struct.redisOpArray = type { ptr, i32, i32 }
%struct.replDataBuf = type { ptr, i64, i64, i64, i64 }
%struct.aclInfo = type { i64, i64, i64, i64 }
%struct.redisTLSContextConfig = type { ptr, ptr, ptr, ptr, ptr, ptr, ptr, ptr, ptr, ptr, ptr, ptr, i32, i32, i32, i32 }
%struct.redisCommand = type { ptr, ptr, ptr, ptr, i32, ptr, ptr, i32, ptr, i32, ptr, i32, ptr, i32, i64, i64, ptr, i32, ptr, i32, ptr, ptr, i64, i64, i64, i64, i32, ptr, ptr, %struct.keySpec, ptr, ptr, ptr }
%struct.keySpec = type { ptr, i64, i32, %union.anon.3, i32, %union.anon.6 }
%union.anon.3 = type { %struct.anon.5 }
%struct.anon.5 = type { ptr, i32 }
%union.anon.6 = type { %struct.anon.7 }
%struct.anon.7 = type { i32, i32, i32 }

@server = external global %struct.redisServer, align 8
@.str.2 = private unnamed_addr constant [9 x i8] c"module.c\00", align 1
@.str.112 = private unnamed_addr constant [54 x i8] c"dictDelete(server.commands, cmd->fullname) == DICT_OK\00", align 1
@.str.113 = private unnamed_addr constant [59 x i8] c"dictDelete(server.orig_commands, cmd->fullname) == DICT_OK\00", align 1

; Function Attrs: nounwind uwtable
define dso_local void @moduleUnregisterCommands(ptr noundef %0) #0 {
  %2 = alloca ptr, align 8
  %3 = alloca ptr, align 8
  %4 = alloca ptr, align 8
  %5 = alloca ptr, align 8
  %6 = alloca i32, align 4
  store ptr %0, ptr %2, align 8, !tbaa !115
  call void @pauseAllIOThreads()
  call void @llvm.lifetime.start.p0(i64 8, ptr %3) #15
  %7 = load ptr, ptr getelementptr inbounds nuw (%struct.redisServer, ptr @server, i32 0, i32 11), align 8, !tbaa !170
  %8 = call ptr @dictGetSafeIterator(ptr noundef %7)
  store ptr %8, ptr %3, align 8, !tbaa !457
  call void @llvm.lifetime.start.p0(i64 8, ptr %4) #15
  br label %9

9:                                                ; preds = %63, %61, %1
  %10 = load ptr, ptr %3, align 8, !tbaa !457
  %11 = call ptr @dictNext(ptr noundef %10)
  store ptr %11, ptr %4, align 8, !tbaa !94
  %12 = icmp ne ptr %11, null
  br i1 %12, label %13, label %64

13:                                               ; preds = %9
  call void @llvm.lifetime.start.p0(i64 8, ptr %5) #15
  %14 = load ptr, ptr %4, align 8, !tbaa !94
  %15 = call ptr @dictGetVal(ptr noundef %14)
  store ptr %15, ptr %5, align 8, !tbaa !153
  %16 = load ptr, ptr %2, align 8, !tbaa !115
  %17 = load ptr, ptr %5, align 8, !tbaa !153
  %18 = call i32 @moduleFreeCommand(ptr noundef %16, ptr noundef %17)
  %19 = icmp ne i32 %18, 0
  br i1 %19, label %20, label %21

20:                                               ; preds = %13
  store i32 2, ptr %6, align 4
  br label %61, !llvm.loop !761

21:                                               ; preds = %13
  %22 = load ptr, ptr getelementptr inbounds nuw (%struct.redisServer, ptr @server, i32 0, i32 11), align 8, !tbaa !170
  %23 = load ptr, ptr %5, align 8, !tbaa !153
  %24 = getelementptr inbounds nuw %struct.redisCommand, ptr %23, i32 0, i32 27
  %25 = load ptr, ptr %24, align 8, !tbaa !174
  %26 = call i32 @dictDelete(ptr noundef %22, ptr noundef %25)
  %27 = icmp eq i32 %26, 0
  %28 = xor i1 %27, true
  %29 = xor i1 %28, true
  %30 = zext i1 %29 to i32
  %31 = sext i32 %30 to i64
  %32 = call i64 @llvm.expect.i64(i64 %31, i64 1)
  %33 = icmp ne i64 %32, 0
  br i1 %33, label %34, label %35

34:                                               ; preds = %21
  br label %37

35:                                               ; preds = %21
  call void @_serverAssert(ptr noundef @.str.112, ptr noundef @.str.2, i32 noundef 12373)
  call void @abort() #18
  unreachable

36:                                               ; No predecessors!
  br label %37

37:                                               ; preds = %36, %34
  %38 = load ptr, ptr getelementptr inbounds nuw (%struct.redisServer, ptr @server, i32 0, i32 12), align 8, !tbaa !171
  %39 = load ptr, ptr %5, align 8, !tbaa !153
  %40 = getelementptr inbounds nuw %struct.redisCommand, ptr %39, i32 0, i32 27
  %41 = load ptr, ptr %40, align 8, !tbaa !174
  %42 = call i32 @dictDelete(ptr noundef %38, ptr noundef %41)
  %43 = icmp eq i32 %42, 0
  %44 = xor i1 %43, true
  %45 = xor i1 %44, true
  %46 = zext i1 %45 to i32
  %47 = sext i32 %46 to i64
  %48 = call i64 @llvm.expect.i64(i64 %47, i64 1)
  %49 = icmp ne i64 %48, 0
  br i1 %49, label %50, label %51

50:                                               ; preds = %37
  br label %53

51:                                               ; preds = %37
  call void @_serverAssert(ptr noundef @.str.113, ptr noundef @.str.2, i32 noundef 12374)
  call void @abort() #18
  unreachable

52:                                               ; No predecessors!
  br label %53

53:                                               ; preds = %52, %50
  %54 = load ptr, ptr %5, align 8, !tbaa !153
  %55 = getelementptr inbounds nuw %struct.redisCommand, ptr %54, i32 0, i32 0
  %56 = load ptr, ptr %55, align 8, !tbaa !173
  call void @sdsfree(ptr noundef %56)
  %57 = load ptr, ptr %5, align 8, !tbaa !153
  %58 = getelementptr inbounds nuw %struct.redisCommand, ptr %57, i32 0, i32 27
  %59 = load ptr, ptr %58, align 8, !tbaa !174
  call void @sdsfree(ptr noundef %59)
  %60 = load ptr, ptr %5, align 8, !tbaa !153
  call void @zfree(ptr noundef %60)
  store i32 0, ptr %6, align 4
  br label %61

61:                                               ; preds = %53, %20
  call void @llvm.lifetime.end.p0(i64 8, ptr %5) #15
  %62 = load i32, ptr %6, align 4
  switch i32 %62, label %66 [
    i32 0, label %63
    i32 2, label %9
  ]

63:                                               ; preds = %61
  br label %9, !llvm.loop !761

64:                                               ; preds = %9
  %65 = load ptr, ptr %3, align 8, !tbaa !457
  call void @dictReleaseIterator(ptr noundef %65)
  call void @resumeAllIOThreads()
  call void @llvm.lifetime.end.p0(i64 8, ptr %4) #15
  call void @llvm.lifetime.end.p0(i64 8, ptr %3) #15
  ret void

66:                                               ; preds = %61
  unreachable
}