; Function Attrs: nounwind uwtable
define dso_local void @moduleUnregisterCommands(ptr noundef captures(address) %0) local_unnamed_addr #0 {
  tail call void @pauseAllIOThreads() #35
  %2 = load ptr, ptr getelementptr inbounds nuw (i8, ptr @server, i64 72), align 8, !tbaa !168
  %3 = tail call ptr @dictGetSafeIterator(ptr noundef %2) #35
  %4 = tail call ptr @dictNext(ptr noundef %3) #35
  %.not11 = icmp eq ptr %4, null
  br i1 %.not11, label %._crit_edge, label %.lr.ph

.lr.ph:                                           ; preds = %1, %24
  %5 = phi ptr [ %25, %24 ], [ %4, %1 ]
  %6 = tail call ptr @dictGetVal(ptr noundef nonnull %5) #35
  %7 = tail call i32 @moduleFreeCommand(ptr noundef %0, ptr noundef %6)
  %.not10 = icmp eq i32 %7, 0
  br i1 %.not10, label %8, label %24, !llvm.loop !649

8:                                                ; preds = %.lr.ph
  %9 = load ptr, ptr getelementptr inbounds nuw (i8, ptr @server, i64 72), align 8, !tbaa !168
  %10 = getelementptr inbounds nuw i8, ptr %6, i64 216
  %11 = load ptr, ptr %10, align 8, !tbaa !159
  %12 = tail call i32 @dictDelete(ptr noundef %9, ptr noundef %11) #35
  %13 = icmp eq i32 %12, 0
  br i1 %13, label %15, label %14, !prof !169

14:                                               ; preds = %8
  tail call void @_serverAssert(ptr noundef nonnull @.str.112, ptr noundef nonnull @.str.2, i32 noundef 12373) #35
  tail call void @abort() #38
  unreachable

15:                                               ; preds = %8
  %16 = load ptr, ptr getelementptr inbounds nuw (i8, ptr @server, i64 80), align 8, !tbaa !170
  %17 = load ptr, ptr %10, align 8, !tbaa !159
  %18 = tail call i32 @dictDelete(ptr noundef %16, ptr noundef %17) #35
  %19 = icmp eq i32 %18, 0
  br i1 %19, label %21, label %20, !prof !169

20:                                               ; preds = %15
  tail call void @_serverAssert(ptr noundef nonnull @.str.113, ptr noundef nonnull @.str.2, i32 noundef 12374) #35
  tail call void @abort() #38
  unreachable

21:                                               ; preds = %15
  %22 = load ptr, ptr %6, align 8, !tbaa !158
  tail call void @sdsfree(ptr noundef %22) #35
  %23 = load ptr, ptr %10, align 8, !tbaa !159
  tail call void @sdsfree(ptr noundef %23) #35
  tail call void @zfree(ptr noundef nonnull %6) #35
  br label %24

24:                                               ; preds = %.lr.ph, %21
  %25 = tail call ptr @dictNext(ptr noundef %3) #35
  %.not = icmp eq ptr %25, null
  br i1 %.not, label %._crit_edge, label %.lr.ph

._crit_edge:                                      ; preds = %24, %1
  tail call void @dictReleaseIterator(ptr noundef %3) #35
  tail call void @resumeAllIOThreads() #35
  ret void
}